#include <math.h>
#include <stdio.h>
#include <stdlib.h>
#include <string.h>

void main()
{
	int a[100],n,i,j;
	scanf("%d",&n);
	for(i=0;i<n;i++)
		scanf("%d",&a[i]);
		printf("%d",a[0]);
		for(i=1;i<n;i++)
		{
			for(j=0;j<i;j++)
			{
				if(a[i]==a[j])break;
				if(a[i]!=a[j])continue;
			}
				if(i==j)
			printf(",%d",a[i]);

		}
}